; ModuleID = '15/356.c'
source_filename = "15/356.c"
target datalayout = "e-m:e-p270:32:32-p271:32:32-p272:64:64-i64:64-f80:128-n8:16:32:64-S128"
target triple = "x86_64-pc-linux-gnu"

@.str = private unnamed_addr constant [3 x i8] c"%d\00", align 1

; Function Attrs: noinline nounwind uwtable
define dso_local void @main() #0 {
  %1 = alloca [1000 x i32], align 16
  %2 = alloca i32, align 4
  %3 = alloca i32, align 4
  %4 = alloca i32, align 4
  %5 = alloca i32, align 4
  %6 = alloca i32, align 4
  %7 = alloca i32, align 4
  %8 = alloca i32, align 4
  %9 = call i32 (i8*, ...) @__isoc99_scanf(i8* getelementptr inbounds ([3 x i8], [3 x i8]* @.str, i64 0, i64 0), i32* %7)
  store i32 0, i32* %8, align 4
  store i32 0, i32* %3, align 4
  br label %10

10:                                               ; preds = %81, %0
  %11 = load i32, i32* %3, align 4
  %12 = load i32, i32* %7, align 4
  %13 = icmp slt i32 %11, %12
  br i1 %13, label %14, label %84

14:                                               ; preds = %10
  store i32 0, i32* %2, align 4
  br label %15

15:                                               ; preds = %24, %14
  %16 = load i32, i32* %2, align 4
  %17 = load i32, i32* %7, align 4
  %18 = icmp slt i32 %16, %17
  br i1 %18, label %19, label %27

19:                                               ; preds = %15
  %20 = load i32, i32* %2, align 4
  %21 = sext i32 %20 to i64
  %22 = getelementptr inbounds [1000 x i32], [1000 x i32]* %1, i64 0, i64 %21
  %23 = call i32 (i8*, ...) @__isoc99_scanf(i8* getelementptr inbounds ([3 x i8], [3 x i8]* @.str, i64 0, i64 0), i32* %22)
  br label %24

24:                                               ; preds = %19
  %25 = load i32, i32* %2, align 4
  %26 = add nsw i32 %25, 1
  store i32 %26, i32* %2, align 4
  br label %15

27:                                               ; preds = %15
  store i32 0, i32* %2, align 4
  br label %28

28:                                               ; preds = %41, %27
  %29 = load i32, i32* %2, align 4
  %30 = add nsw i32 %29, 1
  store i32 %30, i32* %2, align 4
  br label %31

31:                                               ; preds = %28
  %32 = load i32, i32* %2, align 4
  %33 = sext i32 %32 to i64
  %34 = getelementptr inbounds [1000 x i32], [1000 x i32]* %1, i64 0, i64 %33
  %35 = load i32, i32* %34, align 4
  %36 = icmp eq i32 %35, 255
  br i1 %36, label %37, label %41

37:                                               ; preds = %31
  %38 = load i32, i32* %2, align 4
  %39 = load i32, i32* %7, align 4
  %40 = icmp slt i32 %38, %39
  br label %41

41:                                               ; preds = %37, %31
  %42 = phi i1 [ false, %31 ], [ %40, %37 ]
  br i1 %42, label %28, label %43

43:                                               ; preds = %41
  %44 = load i32, i32* %2, align 4
  store i32 %44, i32* %4, align 4
  %45 = load i32, i32* %7, align 4
  store i32 %45, i32* %2, align 4
  br label %46

46:                                               ; preds = %58, %43
  %47 = load i32, i32* %2, align 4
  %48 = add nsw i32 %47, -1
  store i32 %48, i32* %2, align 4
  br label %49

49:                                               ; preds = %46
  %50 = load i32, i32* %2, align 4
  %51 = sext i32 %50 to i64
  %52 = getelementptr inbounds [1000 x i32], [1000 x i32]* %1, i64 0, i64 %51
  %53 = load i32, i32* %52, align 4
  %54 = icmp eq i32 %53, 255
  br i1 %54, label %55, label %58

55:                                               ; preds = %49
  %56 = load i32, i32* %2, align 4
  %57 = icmp sgt i32 %56, 0
  br label %58

58:                                               ; preds = %55, %49
  %59 = phi i1 [ false, %49 ], [ %57, %55 ]
  br i1 %59, label %46, label %60

60:                                               ; preds = %58
  %61 = load i32, i32* %2, align 4
  store i32 %61, i32* %5, align 4
  %62 = load i32, i32* %4, align 4
  store i32 %62, i32* %2, align 4
  br label %63

63:                                               ; preds = %77, %60
  %64 = load i32, i32* %2, align 4
  %65 = load i32, i32* %5, align 4
  %66 = icmp sle i32 %64, %65
  br i1 %66, label %67, label %80

67:                                               ; preds = %63
  %68 = load i32, i32* %2, align 4
  %69 = sext i32 %68 to i64
  %70 = getelementptr inbounds [1000 x i32], [1000 x i32]* %1, i64 0, i64 %69
  %71 = load i32, i32* %70, align 4
  %72 = icmp eq i32 %71, 255
  br i1 %72, label %73, label %76

73:                                               ; preds = %67
  %74 = load i32, i32* %8, align 4
  %75 = add nsw i32 %74, 1
  store i32 %75, i32* %8, align 4
  br label %76

76:                                               ; preds = %73, %67
  br label %77

77:                                               ; preds = %76
  %78 = load i32, i32* %2, align 4
  %79 = add nsw i32 %78, 1
  store i32 %79, i32* %2, align 4
  br label %63

80:                                               ; preds = %63
  br label %81

81:                                               ; preds = %80
  %82 = load i32, i32* %3, align 4
  %83 = add nsw i32 %82, 1
  store i32 %83, i32* %3, align 4
  br label %10

84:                                               ; preds = %10
  %85 = load i32, i32* %8, align 4
  %86 = call i32 (i8*, ...) @printf(i8* getelementptr inbounds ([3 x i8], [3 x i8]* @.str, i64 0, i64 0), i32 %85)
  ret void
}

declare dso_local i32 @__isoc99_scanf(i8*, ...) #1

declare dso_local i32 @printf(i8*, ...) #1


!llvm.module.flags = !{!0}
!llvm.ident = !{!1}

!0 = !{i32 1, !"wchar_size", i32 4}
!1 = !{!"clang version 10.0.0-4ubuntu1 "}
